target datalayout = "e-m:e-p270:32:32-p271:32:32-p272:64:64-i64:64-i128:128-f80:128-n8:16:32:64-S128"
target triple = "x86_64-pc-linux-gnu"

%struct.TextureObject = type { %"class.std::vector", %"class.std::vector.0" }
%"class.std::vector" = type { %"struct.std::_Vector_base" }
%"struct.std::_Vector_base" = type { %"struct.std::_Vector_base<TextureImageInfo, std::allocator<TextureImageInfo>>::_Vector_impl" }
%"struct.std::_Vector_base<TextureImageInfo, std::allocator<TextureImageInfo>>::_Vector_impl" = type { %"struct.std::_Vector_base<TextureImageInfo, std::allocator<TextureImageInfo>>::_Vector_impl_data" }
%"struct.std::_Vector_base<TextureImageInfo, std::allocator<TextureImageInfo>>::_Vector_impl_data" = type { ptr, ptr, ptr }
%"class.std::vector.0" = type { %"struct.std::_Vector_base.1" }
%"struct.std::_Vector_base.1" = type { %"struct.std::_Vector_base<unsigned int, std::allocator<unsigned int>>::_Vector_impl" }
%"struct.std::_Vector_base<unsigned int, std::allocator<unsigned int>>::_Vector_impl" = type { %"struct.std::_Vector_base<unsigned int, std::allocator<unsigned int>>::_Vector_impl_data" }
%"struct.std::_Vector_base<unsigned int, std::allocator<unsigned int>>::_Vector_impl_data" = type { ptr, ptr, ptr }

@.str.1 = private unnamed_addr constant [38 x i8] c"i >= 0 && i < (int) texInfoVec.size()\00", align 1
@.str.2 = private unnamed_addr constant [189 x i8] c"generated/home/dtcxzyw/WorkSpace/Projects/compilers/llvm-opt-benchmark/bench/meshlab/meshlab/src/meshlabplugins/filter_texture_defragmentation/TextureDefragmentation/src/texture_object.cpp\00", align 1

; Function Attrs: mustprogress nounwind uwtable
define linkonce_odr noundef nonnull align 4 dereferenceable(4) ptr @_ZNSt6vectorIjSaIjEEixEm(ptr noundef nonnull align 8 dereferenceable(24) %0, i64 noundef %1) #4 comdat align 2 {
  %3 = alloca ptr, align 8
  %4 = alloca i64, align 8
  store ptr %0, ptr %3, align 8
  store i64 %1, ptr %4, align 8
  %5 = load ptr, ptr %3, align 8
  %6 = getelementptr inbounds %"struct.std::_Vector_base.1", ptr %5, i32 0, i32 0
  %7 = getelementptr inbounds %"struct.std::_Vector_base<unsigned int, std::allocator<unsigned int>>::_Vector_impl_data", ptr %6, i32 0, i32 0
  %8 = load ptr, ptr %7, align 8
  %9 = load i64, ptr %4, align 8
  %10 = getelementptr inbounds i32, ptr %8, i64 %9
  ret ptr %10
}

; Function Attrs: mustprogress nounwind uwtable
define linkonce_odr noundef i64 @_ZNKSt6vectorI16TextureImageInfoSaIS0_EE4sizeEv(ptr noundef nonnull align 8 dereferenceable(24) %0) #4 comdat align 2 {
  %2 = alloca ptr, align 8
  store ptr %0, ptr %2, align 8
  %3 = load ptr, ptr %2, align 8
  %4 = getelementptr inbounds %"struct.std::_Vector_base", ptr %3, i32 0, i32 0
  %5 = getelementptr inbounds %"struct.std::_Vector_base<TextureImageInfo, std::allocator<TextureImageInfo>>::_Vector_impl_data", ptr %4, i32 0, i32 1
  %6 = load ptr, ptr %5, align 8
  %7 = getelementptr inbounds %"struct.std::_Vector_base", ptr %3, i32 0, i32 0
  %8 = getelementptr inbounds %"struct.std::_Vector_base<TextureImageInfo, std::allocator<TextureImageInfo>>::_Vector_impl_data", ptr %7, i32 0, i32 0
  %9 = load ptr, ptr %8, align 8
  %10 = ptrtoint ptr %6 to i64
  %11 = ptrtoint ptr %9 to i64
  %12 = sub i64 %10, %11
  %13 = sdiv exact i64 %12, 32
  ret i64 %13
}

; Function Attrs: mustprogress uwtable
define void @_ZN13TextureObject7ReleaseEi(ptr noundef nonnull align 8 dereferenceable(48) %0, i32 noundef %1) #5 align 2 {
  %3 = alloca ptr, align 8
  %4 = alloca i32, align 4
  store ptr %0, ptr %3, align 8
  store i32 %1, ptr %4, align 4
  %5 = load ptr, ptr %3, align 8
  %6 = load i32, ptr %4, align 4
  %7 = icmp sge i32 %6, 0
  br i1 %7, label %8, label %15

8:                                                ; preds = %2
  %9 = load i32, ptr %4, align 4
  %10 = getelementptr inbounds %struct.TextureObject, ptr %5, i32 0, i32 0
  %11 = call noundef i64 @_ZNKSt6vectorI16TextureImageInfoSaIS0_EE4sizeEv(ptr noundef nonnull align 8 dereferenceable(24) %10) #3
  %12 = trunc i64 %11 to i32
  %13 = icmp slt i32 %9, %12
  br i1 %13, label %14, label %15

14:                                               ; preds = %8
  br label %17

15:                                               ; preds = %8, %2
  call void @_Z11ensure_failPKcS0_j(ptr noundef @.str.1, ptr noundef @.str.2, i32 noundef 99) #16
  unreachable

16:                                               ; No predecessors!
  br label %17

17:                                               ; preds = %16, %14
  %18 = getelementptr inbounds %struct.TextureObject, ptr %5, i32 0, i32 1
  %19 = load i32, ptr %4, align 4
  %20 = sext i32 %19 to i64
  %21 = call noundef nonnull align 4 dereferenceable(4) ptr @_ZNSt6vectorIjSaIjEEixEm(ptr noundef nonnull align 8 dereferenceable(24) %18, i64 noundef %20) #3
  %22 = load i32, ptr %21, align 4
  %23 = icmp ne i32 %22, 0
  br i1 %23, label %24, label %33

24:                                               ; preds = %17
  %25 = getelementptr inbounds %struct.TextureObject, ptr %5, i32 0, i32 1
  %26 = load i32, ptr %4, align 4
  %27 = sext i32 %26 to i64
  %28 = call noundef nonnull align 4 dereferenceable(4) ptr @_ZNSt6vectorIjSaIjEEixEm(ptr noundef nonnull align 8 dereferenceable(24) %25, i64 noundef %27) #3
  call void @glDeleteTextures(i32 noundef 1, ptr noundef %28)
  %29 = getelementptr inbounds %struct.TextureObject, ptr %5, i32 0, i32 1
  %30 = load i32, ptr %4, align 4
  %31 = sext i32 %30 to i64
  %32 = call noundef nonnull align 4 dereferenceable(4) ptr @_ZNSt6vectorIjSaIjEEixEm(ptr noundef nonnull align 8 dereferenceable(24) %29, i64 noundef %31) #3
  store i32 0, ptr %32, align 4
  br label %33

33:                                               ; preds = %24, %17
  ret void
}