; Function Attrs: mustprogress uwtable
define void @_ZN13TextureObject7ReleaseEi(ptr nocapture noundef nonnull readonly align 8 dereferenceable(48) %0, i32 noundef %1) local_unnamed_addr #5 align 2 {
  %3 = icmp sgt i32 %1, -1
  br i1 %3, label %4, label %14

4:                                                ; preds = %2
  %5 = getelementptr inbounds i8, ptr %0, i64 8
  %6 = load ptr, ptr %5, align 8
  %7 = load ptr, ptr %0, align 8
  %8 = ptrtoint ptr %6 to i64
  %9 = ptrtoint ptr %7 to i64
  %10 = sub i64 %8, %9
  %11 = lshr exact i64 %10, 5
  %12 = trunc i64 %11 to i32
  %13 = icmp sgt i32 %12, %1
  br i1 %13, label %15, label %14

14:                                               ; preds = %4, %2
  tail call void @_Z11ensure_failPKcS0_j(ptr noundef nonnull @.str.1, ptr noundef nonnull @.str.2, i32 noundef 99) #20
  unreachable

15:                                               ; preds = %4
  %16 = getelementptr inbounds i8, ptr %0, i64 24
  %17 = zext nneg i32 %1 to i64
  %18 = load ptr, ptr %16, align 8
  %19 = getelementptr inbounds i32, ptr %18, i64 %17
  %20 = load i32, ptr %19, align 4
  %.not = icmp eq i32 %20, 0
  br i1 %.not, label %24, label %21

21:                                               ; preds = %15
  tail call void @glDeleteTextures(i32 noundef 1, ptr noundef nonnull %19)
  %22 = load ptr, ptr %16, align 8
  %23 = getelementptr inbounds i32, ptr %22, i64 %17
  store i32 0, ptr %23, align 4
  br label %24

24:                                               ; preds = %21, %15
  ret void
}